target datalayout = "e-m:e-p270:32:32-p271:32:32-p272:64:64-i64:64-i128:128-f80:128-n8:16:32:64-S128"
target triple = "x86_64-unknown-linux-gnu"

%struct.VncState = type { i64, ptr, ptr, i32, i32, [2048 x [3 x i64]], ptr, ptr, i32, i32, i32, i32, i32, i32, i32, i32, i64, i64, i32, i32, i32, i32, i32, i32, [16 x i8], ptr, i8, i8, ptr, i64, i64, %struct.Buffer, %struct.Buffer, ptr, %struct.PixelFormat, i32, i8, ptr, %struct.audsettings, ptr, i64, i8, %struct.QemuMutex, ptr, %struct.Buffer, ptr, %struct.VncZlib, %struct.VncHextile, ptr, %struct.VncZywrle, %struct.Notifier, %struct.QemuClipboardPeer, ptr, i32, %union.anon }
%struct.PixelFormat = type { i8, i8, i8, i32, i32, i32, i32, i8, i8, i8, i8, i8, i8, i8, i8, i8, i8, i8, i8 }
%struct.audsettings = type { i32, i32, i32, i32 }
%struct.QemuMutex = type { %union.pthread_mutex_t, i8 }
%union.pthread_mutex_t = type { %struct.__pthread_mutex_s }
%struct.__pthread_mutex_s = type { i32, i32, i32, i32, i32, i16, i16, %struct.__pthread_internal_list }
%struct.__pthread_internal_list = type { ptr, ptr }
%struct.Buffer = type { ptr, i64, i64, i64, ptr }
%struct.VncZlib = type { %struct.Buffer, %struct.Buffer, %struct.z_stream_s, i32 }
%struct.z_stream_s = type { ptr, i32, i64, ptr, i32, i64, ptr, ptr, ptr, ptr, ptr, i32, i64, i64 }
%struct.VncHextile = type { ptr }
%struct.VncZywrle = type { [4096 x i32] }
%struct.Notifier = type { ptr, %struct.anon.1 }
%struct.anon.1 = type { ptr, ptr }
%struct.QemuClipboardPeer = type { ptr, %struct.Notifier, ptr }
%union.anon = type { %struct.QTailQLink }
%struct.QTailQLink = type { ptr, ptr }
%struct.VncZrle = type { i32, %struct.Buffer, %struct.Buffer, %struct.Buffer, %struct.Buffer, %struct.z_stream_s, %struct.VncPalette }
%struct.VncPalette = type { [256 x %struct.VncPaletteEntry], i64, i64, i32, [256 x %struct.anon.0] }
%struct.VncPaletteEntry = type { i32, i32, %struct.anon }
%struct.anon = type { ptr, ptr }
%struct.anon.0 = type { ptr }

; Function Attrs: nounwind sspstrong uwtable
define dso_local void @vnc_zrle_clear(ptr noundef %vs) #0 {
entry:
  %vs.addr = alloca ptr, align 8
  store ptr %vs, ptr %vs.addr, align 8
  %0 = load ptr, ptr %vs.addr, align 8
  %zrle = getelementptr inbounds %struct.VncState, ptr %0, i32 0, i32 48
  %1 = load ptr, ptr %zrle, align 8
  %stream = getelementptr inbounds %struct.VncZrle, ptr %1, i32 0, i32 5
  %opaque = getelementptr inbounds %struct.z_stream_s, ptr %stream, i32 0, i32 10
  %2 = load ptr, ptr %opaque, align 8
  %tobool = icmp ne ptr %2, null
  br i1 %tobool, label %if.then, label %if.end

if.then:                                          ; preds = %entry
  %3 = load ptr, ptr %vs.addr, align 8
  %zrle1 = getelementptr inbounds %struct.VncState, ptr %3, i32 0, i32 48
  %4 = load ptr, ptr %zrle1, align 8
  %stream2 = getelementptr inbounds %struct.VncZrle, ptr %4, i32 0, i32 5
  %call = call i32 @deflateEnd(ptr noundef %stream2)
  br label %if.end

if.end:                                           ; preds = %if.then, %entry
  %5 = load ptr, ptr %vs.addr, align 8
  %zrle3 = getelementptr inbounds %struct.VncState, ptr %5, i32 0, i32 48
  %6 = load ptr, ptr %zrle3, align 8
  %zrle4 = getelementptr inbounds %struct.VncZrle, ptr %6, i32 0, i32 2
  call void @buffer_free(ptr noundef %zrle4)
  %7 = load ptr, ptr %vs.addr, align 8
  %zrle5 = getelementptr inbounds %struct.VncState, ptr %7, i32 0, i32 48
  %8 = load ptr, ptr %zrle5, align 8
  %fb = getelementptr inbounds %struct.VncZrle, ptr %8, i32 0, i32 1
  call void @buffer_free(ptr noundef %fb)
  %9 = load ptr, ptr %vs.addr, align 8
  %zrle6 = getelementptr inbounds %struct.VncState, ptr %9, i32 0, i32 48
  %10 = load ptr, ptr %zrle6, align 8
  %zlib = getelementptr inbounds %struct.VncZrle, ptr %10, i32 0, i32 4
  call void @buffer_free(ptr noundef %zlib)
  ret void
}