; Function Attrs: nounwind sspstrong uwtable
define dso_local void @vnc_zrle_clear(ptr noundef readonly captures(none) %vs) local_unnamed_addr #0 {
entry:
  %zrle = getelementptr inbounds nuw i8, ptr %vs, i64 49816
  %0 = load ptr, ptr %zrle, align 8
  %opaque = getelementptr inbounds nuw i8, ptr %0, i64 248
  %1 = load ptr, ptr %opaque, align 8
  %tobool.not = icmp eq ptr %1, null
  br i1 %tobool.not, label %if.end, label %if.then

if.then:                                          ; preds = %entry
  %stream = getelementptr inbounds nuw i8, ptr %0, i64 168
  %call = tail call i32 @deflateEnd(ptr noundef nonnull %stream) #9
  %.pre = load ptr, ptr %zrle, align 8
  br label %if.end

if.end:                                           ; preds = %if.then, %entry
  %2 = phi ptr [ %.pre, %if.then ], [ %0, %entry ]
  %zrle4 = getelementptr inbounds nuw i8, ptr %2, i64 48
  tail call void @buffer_free(ptr noundef nonnull %zrle4) #9
  %3 = load ptr, ptr %zrle, align 8
  %fb = getelementptr inbounds nuw i8, ptr %3, i64 8
  tail call void @buffer_free(ptr noundef nonnull %fb) #9
  %4 = load ptr, ptr %zrle, align 8
  %zlib = getelementptr inbounds nuw i8, ptr %4, i64 128
  tail call void @buffer_free(ptr noundef nonnull %zlib) #9
  ret void
}